target datalayout = "e-m:e-p270:32:32-p271:32:32-p272:64:64-i64:64-i128:128-f80:128-n8:16:32:64-S128"
target triple = "x86_64-pc-linux-gnu"

%struct.darktable_t = type { %struct.dt_codepath_t, i32, i32, ptr, ptr, ptr, ptr, ptr, ptr, ptr, ptr, ptr, ptr, ptr, ptr, ptr, ptr, ptr, ptr, ptr, ptr, ptr, ptr, ptr, ptr, ptr, ptr, ptr, ptr, ptr, [64 x %struct.dt_pthread_mutex_t], %struct.dt_pthread_mutex_t, %struct.dt_pthread_mutex_t, %struct.dt_pthread_mutex_t, %struct.dt_pthread_mutex_t, %struct.dt_pthread_mutex_t, ptr, ptr, ptr, ptr, ptr, ptr, ptr, ptr, ptr, ptr, ptr, ptr, ptr, %struct.dt_lua_state_t, ptr, double, ptr, i32, [47 x i32], i32, i32, ptr, ptr, %struct.dt_sys_resources_t, %struct.dt_backthumb_t, %struct.dt_gimp_t }
%struct.dt_codepath_t = type { i8, [3 x i8] }
%struct.dt_pthread_mutex_t = type { %union.pthread_mutex_t }
%union.pthread_mutex_t = type { %struct.__pthread_mutex_s }
%struct.__pthread_mutex_s = type { i32, i32, i32, i32, i32, i16, i16, %struct.__pthread_internal_list }
%struct.__pthread_internal_list = type { ptr, ptr }
%struct.dt_lua_state_t = type { i32 }
%struct.dt_sys_resources_t = type { i64, i64, ptr, ptr, i32 }
%struct.dt_backthumb_t = type { double, double, i32, i32, i32, i32 }
%struct.dt_gimp_t = type { i32, ptr, ptr, i32, i32 }
%struct.dt_control_image_enumerator_t = type { ptr, i32, ptr, i32 }
%struct._GList = type { ptr, ptr, ptr }
%struct.dt_image_t = type { i32, i32, float, float, float, float, float, float, float, [64 x i8], [64 x i8], [128 x i8], [64 x i8], [64 x i8], [64 x i8], [64 x i8], i64, i32, %union.dt_image_correction_data_t, [64 x i8], [64 x i8], [64 x i8], [128 x i8], i32, [256 x i8], i32, i32, i32, i32, i32, i32, i32, i32, i32, i32, float, i32, i32, i32, i32, i32, i32, i64, i64, i64, i64, i32, [12 x i8], %struct.dt_iop_buffer_dsc_t, [9 x float], ptr, i32, i32, %struct.dt_image_raw_parameters_t, %struct.dt_image_geoloc_t, %struct._color_harmony_t, i16, [4 x i16], i32, i32, float, float, [4 x float], [4 x [3 x float]], [4 x float], ptr, ptr, i32, i32, [8 x i8] }
%union.dt_image_correction_data_t = type { %struct.anon.16 }
%struct.anon.16 = type { i32, float, [11 x float], [11 x float], [11 x float], [11 x float], [11 x float] }
%struct.dt_iop_buffer_dsc_t = type { i32, i32, i32, [6 x [6 x i8]], %struct.anon.19, [12 x i8], %struct.anon.20, [4 x float], i32, [12 x i8] }
%struct.anon.19 = type { i16, i16 }
%struct.anon.20 = type { i32, [12 x i8], [4 x float] }
%struct.dt_image_raw_parameters_t = type { i32 }
%struct.dt_image_geoloc_t = type { double, double, double }
%struct._color_harmony_t = type { i32, i32, i32 }
%struct.timeval = type { i64, i64 }

@darktable = external global %struct.darktable_t, align 8
@.str.48 = private unnamed_addr constant [129 x i8] c"generated/home/dtcxzyw/WorkSpace/Projects/compilers/llvm-opt-benchmark/bench/darktable/darktable/src/control/jobs/control_jobs.c\00", align 1
@.str.76 = private unnamed_addr constant [41 x i8] c"[sql] %s:%d, function %s(): prepare \22%s\22\00", align 1
@stderr = external global ptr, align 8
@.str.78 = private unnamed_addr constant [53 x i8] c"sqlite3 error: %s:%d, function %s(), query \22%s\22: %s\0A\00", align 1
@.str.79 = private unnamed_addr constant [41 x i8] c"sqlite3 error: %s:%d, function %s(): %s\0A\00", align 1
@.str.109 = private unnamed_addr constant [5 x i8] c".xmp\00", align 1
@.str.177 = private unnamed_addr constant [21 x i8] c"writing sidecar file\00", align 1
@.str.178 = private unnamed_addr constant [26 x i8] c"writing %zu sidecar files\00", align 1
@__FUNCTION__.dt_control_write_sidecar_files_job_run = private unnamed_addr constant [39 x i8] c"dt_control_write_sidecar_files_job_run\00", align 1
@.str.179 = private unnamed_addr constant [77 x i8] c"UPDATE main.images SET write_timestamp = STRFTIME('%s', 'now') WHERE id = ?1\00", align 1

; Function Attrs: inlinehint nounwind uwtable
define internal double @dt_get_wtime() #5 {
  %1 = alloca %struct.timeval, align 8
  call void @llvm.lifetime.start.p0(i64 16, ptr %1) #14
  %2 = call i32 @gettimeofday(ptr noundef %1, ptr noundef null) #14
  %3 = getelementptr inbounds nuw %struct.timeval, ptr %1, i32 0, i32 0
  %4 = load i64, ptr %3, align 8, !tbaa !263
  %5 = sub nsw i64 %4, 1290608000
  %6 = sitofp i64 %5 to double
  %7 = getelementptr inbounds nuw %struct.timeval, ptr %1, i32 0, i32 1
  %8 = load i64, ptr %7, align 8, !tbaa !265
  %9 = sitofp i64 %8 to double
  %10 = fmul reassoc nsz arcp contract afn double 0x3EB0C6F7A0B5ED8D, %9
  %11 = fadd reassoc nsz arcp contract afn double %6, %10
  call void @llvm.lifetime.end.p0(i64 16, ptr %1) #14
  ret double %11
}

; Function Attrs: nounwind uwtable
define internal void @_update_progress(ptr noundef %0, double noundef %1, ptr noundef %2) #0 {
  %4 = alloca ptr, align 8
  %5 = alloca double, align 8
  %6 = alloca ptr, align 8
  %7 = alloca double, align 8
  store ptr %0, ptr %4, align 8, !tbaa !51
  store double %1, ptr %5, align 8, !tbaa !61
  store ptr %2, ptr %6, align 8, !tbaa !266
  call void @llvm.lifetime.start.p0(i64 8, ptr %7) #14
  %8 = call reassoc nsz arcp contract afn double @dt_get_wtime()
  store double %8, ptr %7, align 8, !tbaa !61
  %9 = load double, ptr %7, align 8, !tbaa !61
  %10 = load ptr, ptr %6, align 8, !tbaa !266
  %11 = load double, ptr %10, align 8, !tbaa !61
  %12 = fadd reassoc nsz arcp contract afn double %11, 5.000000e-01
  %13 = fcmp reassoc nsz arcp contract afn ogt double %9, %12
  br i1 %13, label %14, label %31

14:                                               ; preds = %3
  %15 = load ptr, ptr %4, align 8, !tbaa !51
  %16 = load double, ptr %5, align 8, !tbaa !61
  %17 = fcmp reassoc nsz arcp contract afn ogt double %16, 1.000000e+00
  br i1 %17, label %18, label %19

18:                                               ; preds = %14
  br label %27

19:                                               ; preds = %14
  %20 = load double, ptr %5, align 8, !tbaa !61
  %21 = fcmp reassoc nsz arcp contract afn olt double %20, 0.000000e+00
  br i1 %21, label %22, label %23

22:                                               ; preds = %19
  br label %25

23:                                               ; preds = %19
  %24 = load double, ptr %5, align 8, !tbaa !61
  br label %25

25:                                               ; preds = %23, %22
  %26 = phi reassoc nsz arcp contract afn double [ 0.000000e+00, %22 ], [ %24, %23 ]
  br label %27

27:                                               ; preds = %25, %18
  %28 = phi reassoc nsz arcp contract afn double [ 1.000000e+00, %18 ], [ %26, %25 ]
  call void @dt_control_job_set_progress(ptr noundef %15, double noundef %28)
  %29 = load double, ptr %7, align 8, !tbaa !61
  %30 = load ptr, ptr %6, align 8, !tbaa !266
  store double %29, ptr %30, align 8, !tbaa !61
  br label %31

31:                                               ; preds = %27, %3
  call void @llvm.lifetime.end.p0(i64 8, ptr %7) #14
  ret void
}

; Function Attrs: inlinehint nounwind uwtable
define internal i32 @_job_cancelled(ptr noundef %0) #5 {
  %2 = alloca ptr, align 8
  store ptr %0, ptr %2, align 8, !tbaa !51
  %3 = load ptr, ptr %2, align 8, !tbaa !51
  %4 = call i32 @dt_control_job_get_state(ptr noundef %3)
  %5 = icmp eq i32 %4, 4
  %6 = zext i1 %5 to i32
  ret i32 %6
}

; Function Attrs: nounwind uwtable
define internal i32 @dt_control_write_sidecar_files_job_run(ptr noundef %0) #0 {
  %2 = alloca ptr, align 8
  %3 = alloca ptr, align 8
  %4 = alloca [512 x i8], align 16
  %5 = alloca i64, align 8
  %6 = alloca ptr, align 8
  %7 = alloca i32, align 4
  %8 = alloca i64, align 8
  %9 = alloca double, align 8
  %10 = alloca ptr, align 8
  %11 = alloca i32, align 4
  %12 = alloca ptr, align 8
  %13 = alloca [4096 x i8], align 16
  %14 = alloca i32, align 4
  %15 = alloca double, align 8
  store ptr %0, ptr %2, align 8, !tbaa !51
  call void @llvm.lifetime.start.p0(i64 8, ptr %3) #14
  %16 = load ptr, ptr %2, align 8, !tbaa !51
  %17 = call ptr @dt_control_job_get_params(ptr noundef %16)
  store ptr %17, ptr %3, align 8, !tbaa !53
  call void @llvm.lifetime.start.p0(i64 512, ptr %4) #14
  call void @llvm.memset.p0.i64(ptr align 16 %4, i8 0, i64 512, i1 false)
  call void @llvm.lifetime.start.p0(i64 8, ptr %5) #14
  %18 = load ptr, ptr %3, align 8, !tbaa !53
  %19 = getelementptr inbounds nuw %struct.dt_control_image_enumerator_t, ptr %18, i32 0, i32 0
  %20 = load ptr, ptr %19, align 8, !tbaa !57
  %21 = call i32 @g_list_length(ptr noundef %20)
  %22 = zext i32 %21 to i64
  store i64 %22, ptr %5, align 8, !tbaa !73
  %23 = getelementptr inbounds [512 x i8], ptr %4, i64 0, i64 0
  %24 = load i64, ptr %5, align 8, !tbaa !73
  %25 = call ptr @dcngettext(ptr noundef null, ptr noundef @.str.177, ptr noundef @.str.178, i64 noundef %24, i32 noundef 5) #14
  %26 = load i64, ptr %5, align 8, !tbaa !73
  %27 = call i32 (ptr, i64, ptr, ...) @g_snprintf(ptr noundef %23, i64 noundef 512, ptr noundef %25, i64 noundef %26)
  %28 = load ptr, ptr %2, align 8, !tbaa !51
  %29 = getelementptr inbounds [512 x i8], ptr %4, i64 0, i64 0
  call void @dt_control_job_set_progress_message(ptr noundef %28, ptr noundef %29)
  call void @llvm.lifetime.start.p0(i64 8, ptr %6) #14
  br label %30

30:                                               ; preds = %1
  br label %31

31:                                               ; preds = %30
  %32 = load i32, ptr getelementptr inbounds nuw (%struct.darktable_t, ptr @darktable, i32 0, i32 2), align 8, !tbaa !85
  %33 = and i32 256, %32
  %34 = icmp ne i32 %33, 0
  br i1 %34, label %35, label %41

35:                                               ; preds = %31
  %36 = load i32, ptr getelementptr inbounds nuw (%struct.darktable_t, ptr @darktable, i32 0, i32 2), align 8, !tbaa !85
  %37 = xor i32 %36, -1
  %38 = and i32 0, %37
  %39 = icmp ne i32 %38, 0
  br i1 %39, label %41, label %40

40:                                               ; preds = %35
  call void (ptr, ...) @dt_print_ext(ptr noundef @.str.76, ptr noundef @.str.48, i32 noundef 341, ptr noundef @__FUNCTION__.dt_control_write_sidecar_files_job_run, ptr noundef @.str.179)
  br label %41

41:                                               ; preds = %40, %35, %31
  br label %42

42:                                               ; preds = %41
  br label %43

43:                                               ; preds = %42
  call void @llvm.lifetime.start.p0(i64 4, ptr %7) #14
  %44 = load ptr, ptr getelementptr inbounds nuw (%struct.darktable_t, ptr @darktable, i32 0, i32 18), align 8, !tbaa !96
  %45 = call ptr @dt_database_get(ptr noundef %44)
  %46 = call i32 @sqlite3_prepare_v2(ptr noundef %45, ptr noundef @.str.179, i32 noundef -1, ptr noundef %6, ptr noundef null)
  store i32 %46, ptr %7, align 4, !tbaa !50
  %47 = load i32, ptr %7, align 4, !tbaa !50
  %48 = icmp ne i32 %47, 0
  br i1 %48, label %49, label %55

49:                                               ; preds = %43
  %50 = load ptr, ptr @stderr, align 8, !tbaa !97
  %51 = load ptr, ptr getelementptr inbounds nuw (%struct.darktable_t, ptr @darktable, i32 0, i32 18), align 8, !tbaa !96
  %52 = call ptr @dt_database_get(ptr noundef %51)
  %53 = call ptr @sqlite3_errmsg(ptr noundef %52)
  %54 = call i32 (ptr, ptr, ...) @fprintf(ptr noundef %50, ptr noundef @.str.78, ptr noundef @.str.48, i32 noundef 341, ptr noundef @__FUNCTION__.dt_control_write_sidecar_files_job_run, ptr noundef @.str.179, ptr noundef %53) #14
  br label %55

55:                                               ; preds = %49, %43
  call void @llvm.lifetime.end.p0(i64 4, ptr %7) #14
  br label %56

56:                                               ; preds = %55
  br label %57

57:                                               ; preds = %56
  call void @llvm.lifetime.start.p0(i64 8, ptr %8) #14
  store i64 0, ptr %8, align 8, !tbaa !73
  call void @llvm.lifetime.start.p0(i64 8, ptr %9) #14
  store double 0.000000e+00, ptr %9, align 8, !tbaa !61
  call void @llvm.lifetime.start.p0(i64 8, ptr %10) #14
  %58 = load ptr, ptr %3, align 8, !tbaa !53
  %59 = getelementptr inbounds nuw %struct.dt_control_image_enumerator_t, ptr %58, i32 0, i32 0
  %60 = load ptr, ptr %59, align 8, !tbaa !57
  store ptr %60, ptr %10, align 8, !tbaa !60
  br label %61

61:                                               ; preds = %133, %57
  %62 = load ptr, ptr %10, align 8, !tbaa !60
  %63 = icmp ne ptr %62, null
  br i1 %63, label %64, label %69

64:                                               ; preds = %61
  %65 = load ptr, ptr %2, align 8, !tbaa !51
  %66 = call i32 @_job_cancelled(ptr noundef %65)
  %67 = icmp ne i32 %66, 0
  %68 = xor i1 %67, true
  br label %69

69:                                               ; preds = %64, %61
  %70 = phi i1 [ false, %61 ], [ %68, %64 ]
  br i1 %70, label %72, label %71

71:                                               ; preds = %69
  call void @llvm.lifetime.end.p0(i64 8, ptr %10) #14
  br label %135

72:                                               ; preds = %69
  call void @llvm.lifetime.start.p0(i64 4, ptr %11) #14
  %73 = load ptr, ptr %10, align 8, !tbaa !60
  %74 = getelementptr inbounds nuw %struct._GList, ptr %73, i32 0, i32 0
  %75 = load ptr, ptr %74, align 8, !tbaa !70
  %76 = ptrtoint ptr %75 to i64
  %77 = trunc i64 %76 to i32
  store i32 %77, ptr %11, align 4, !tbaa !50
  call void @llvm.lifetime.start.p0(i64 8, ptr %12) #14
  %78 = load ptr, ptr getelementptr inbounds nuw (%struct.darktable_t, ptr @darktable, i32 0, i32 16), align 8, !tbaa !93
  %79 = load i32, ptr %11, align 4, !tbaa !50
  %80 = call ptr @dt_image_cache_get(ptr noundef %78, i32 noundef %79, i8 noundef signext 114)
  store ptr %80, ptr %12, align 8, !tbaa !109
  call void @llvm.lifetime.start.p0(i64 4096, ptr %13) #14
  call void @llvm.memset.p0.i64(ptr align 16 %13, i8 0, i64 4096, i1 false)
  %81 = load ptr, ptr %12, align 8, !tbaa !109
  %82 = getelementptr inbounds nuw %struct.dt_image_t, ptr %81, i32 0, i32 40
  %83 = load i32, ptr %82, align 8, !tbaa !213
  %84 = getelementptr inbounds [4096 x i8], ptr %13, i64 0, i64 0
  call void @dt_image_full_path(i32 noundef %83, ptr noundef %84, i64 noundef 4096, ptr noundef null)
  %85 = load ptr, ptr %12, align 8, !tbaa !109
  %86 = getelementptr inbounds nuw %struct.dt_image_t, ptr %85, i32 0, i32 40
  %87 = load i32, ptr %86, align 8, !tbaa !213
  %88 = getelementptr inbounds [4096 x i8], ptr %13, i64 0, i64 0
  call void @dt_image_path_append_version(i32 noundef %87, ptr noundef %88, i64 noundef 4096)
  %89 = getelementptr inbounds [4096 x i8], ptr %13, i64 0, i64 0
  %90 = call i64 @g_strlcat(ptr noundef %89, ptr noundef @.str.109, i64 noundef 4096)
  %91 = load i32, ptr %11, align 4, !tbaa !50
  %92 = getelementptr inbounds [4096 x i8], ptr %13, i64 0, i64 0
  %93 = call i32 @dt_exif_xmp_write(i32 noundef %91, ptr noundef %92, i32 noundef 0)
  %94 = icmp ne i32 %93, 0
  br i1 %94, label %114, label %95

95:                                               ; preds = %72
  call void @llvm.lifetime.start.p0(i64 4, ptr %14) #14
  %96 = load ptr, ptr %6, align 8, !tbaa !94
  %97 = load i32, ptr %11, align 4, !tbaa !50
  %98 = call i32 @sqlite3_bind_int(ptr noundef %96, i32 noundef 1, i32 noundef %97)
  store i32 %98, ptr %14, align 4, !tbaa !50
  %99 = load i32, ptr %14, align 4, !tbaa !50
  %100 = icmp ne i32 %99, 0
  br i1 %100, label %101, label %107

101:                                              ; preds = %95
  %102 = load ptr, ptr @stderr, align 8, !tbaa !97
  %103 = load ptr, ptr getelementptr inbounds nuw (%struct.darktable_t, ptr @darktable, i32 0, i32 18), align 8, !tbaa !96
  %104 = call ptr @dt_database_get(ptr noundef %103)
  %105 = call ptr @sqlite3_errmsg(ptr noundef %104)
  %106 = call i32 (ptr, ptr, ...) @fprintf(ptr noundef %102, ptr noundef @.str.79, ptr noundef @.str.48, i32 noundef 359, ptr noundef @__FUNCTION__.dt_control_write_sidecar_files_job_run, ptr noundef %105) #14
  br label %107

107:                                              ; preds = %101, %95
  call void @llvm.lifetime.end.p0(i64 4, ptr %14) #14
  %108 = load ptr, ptr %6, align 8, !tbaa !94
  %109 = call i32 @sqlite3_step(ptr noundef %108)
  %110 = load ptr, ptr %6, align 8, !tbaa !94
  %111 = call i32 @sqlite3_reset(ptr noundef %110)
  %112 = load ptr, ptr %6, align 8, !tbaa !94
  %113 = call i32 @sqlite3_clear_bindings(ptr noundef %112)
  br label %114

114:                                              ; preds = %107, %72
  %115 = load ptr, ptr getelementptr inbounds nuw (%struct.darktable_t, ptr @darktable, i32 0, i32 16), align 8, !tbaa !93
  %116 = load ptr, ptr %12, align 8, !tbaa !109
  call void @dt_image_cache_read_release(ptr noundef %115, ptr noundef %116)
  call void @llvm.lifetime.start.p0(i64 8, ptr %15) #14
  %117 = load i64, ptr %8, align 8, !tbaa !73
  %118 = add i64 %117, 1
  store i64 %118, ptr %8, align 8, !tbaa !73
  %119 = uitofp i64 %118 to double
  %120 = load i64, ptr %5, align 8, !tbaa !73
  %121 = uitofp i64 %120 to double
  %122 = fdiv reassoc nsz arcp contract afn double %119, %121
  store double %122, ptr %15, align 8, !tbaa !61
  %123 = load ptr, ptr %2, align 8, !tbaa !51
  %124 = load double, ptr %15, align 8, !tbaa !61
  call void @_update_progress(ptr noundef %123, double noundef %124, ptr noundef %9)
  call void @llvm.lifetime.end.p0(i64 8, ptr %15) #14
  call void @llvm.lifetime.end.p0(i64 4096, ptr %13) #14
  call void @llvm.lifetime.end.p0(i64 8, ptr %12) #14
  call void @llvm.lifetime.end.p0(i64 4, ptr %11) #14
  br label %125

125:                                              ; preds = %114
  %126 = load ptr, ptr %10, align 8, !tbaa !60
  %127 = icmp ne ptr %126, null
  br i1 %127, label %128, label %132

128:                                              ; preds = %125
  %129 = load ptr, ptr %10, align 8, !tbaa !60
  %130 = getelementptr inbounds nuw %struct._GList, ptr %129, i32 0, i32 1
  %131 = load ptr, ptr %130, align 8, !tbaa !72
  br label %133

132:                                              ; preds = %125
  br label %133

133:                                              ; preds = %132, %128
  %134 = phi ptr [ %131, %128 ], [ null, %132 ]
  store ptr %134, ptr %10, align 8, !tbaa !60
  br label %61

135:                                              ; preds = %71
  %136 = load ptr, ptr %6, align 8, !tbaa !94
  %137 = call i32 @sqlite3_finalize(ptr noundef %136)
  call void @llvm.lifetime.end.p0(i64 8, ptr %9) #14
  call void @llvm.lifetime.end.p0(i64 8, ptr %8) #14
  call void @llvm.lifetime.end.p0(i64 8, ptr %6) #14
  call void @llvm.lifetime.end.p0(i64 8, ptr %5) #14
  call void @llvm.lifetime.end.p0(i64 512, ptr %4) #14
  call void @llvm.lifetime.end.p0(i64 8, ptr %3) #14
  ret i32 0
}