; Function Attrs: nounwind uwtable
define internal noundef i32 @dt_control_write_sidecar_files_job_run(ptr noundef %0) #0 {
  %2 = alloca %struct.timeval, align 8
  %3 = alloca [512 x i8], align 16
  %4 = alloca ptr, align 8
  %5 = alloca [4096 x i8], align 16
  %6 = tail call ptr @dt_control_job_get_params(ptr noundef %0) #17
  call void @llvm.lifetime.start.p0(i64 512, ptr nonnull %3) #17
  call void @llvm.memset.p0.i64(ptr noundef nonnull align 16 dereferenceable(512) %3, i8 0, i64 512, i1 false)
  %7 = load ptr, ptr %6, align 8, !tbaa !50
  %8 = tail call i32 @g_list_length(ptr noundef %7) #17
  %9 = zext i32 %8 to i64
  %10 = tail call ptr @dcngettext(ptr noundef null, ptr noundef nonnull @.str.177, ptr noundef nonnull @.str.178, i64 noundef %9, i32 noundef 5) #17
  %11 = call i32 (ptr, i64, ptr, ...) @g_snprintf(ptr noundef nonnull %3, i64 noundef 512, ptr noundef %10, i64 noundef %9) #17
  call void @dt_control_job_set_progress_message(ptr noundef %0, ptr noundef nonnull %3) #17
  call void @llvm.lifetime.start.p0(i64 8, ptr nonnull %4) #17
  %12 = load i32, ptr getelementptr inbounds nuw (i8, ptr @darktable, i64 8), align 8, !tbaa !77
  %13 = and i32 %12, 256
  %.not = icmp eq i32 %13, 0
  br i1 %.not, label %15, label %14

14:                                               ; preds = %1
  call void (ptr, ...) @dt_print_ext(ptr noundef nonnull @.str.76, ptr noundef nonnull @.str.48, i32 noundef 341, ptr noundef nonnull @__FUNCTION__.dt_control_write_sidecar_files_job_run, ptr noundef nonnull @.str.179) #17
  br label %15

15:                                               ; preds = %14, %1
  %16 = load ptr, ptr getelementptr inbounds nuw (i8, ptr @darktable, i64 136), align 8, !tbaa !79
  %17 = call ptr @dt_database_get(ptr noundef %16) #17
  %18 = call i32 @sqlite3_prepare_v2(ptr noundef %17, ptr noundef nonnull @.str.179, i32 noundef -1, ptr noundef nonnull %4, ptr noundef null) #17
  %.not23 = icmp eq i32 %18, 0
  br i1 %.not23, label %25, label %19

19:                                               ; preds = %15
  %20 = load ptr, ptr @stderr, align 8, !tbaa !80
  %21 = load ptr, ptr getelementptr inbounds nuw (i8, ptr @darktable, i64 136), align 8, !tbaa !79
  %22 = call ptr @dt_database_get(ptr noundef %21) #17
  %23 = call ptr @sqlite3_errmsg(ptr noundef %22) #17
  %24 = call i32 (ptr, ptr, ...) @fprintf(ptr noundef %20, ptr noundef nonnull @.str.78, ptr noundef nonnull @.str.48, i32 noundef 341, ptr noundef nonnull @__FUNCTION__.dt_control_write_sidecar_files_job_run, ptr noundef nonnull @.str.179, ptr noundef %23) #20
  br label %25

25:                                               ; preds = %19, %15
  %.02230 = load ptr, ptr %6, align 8, !tbaa !176
  %.not2431 = icmp eq ptr %.02230, null
  br i1 %.not2431, label %.critedge, label %.lr.ph

.lr.ph:                                           ; preds = %25
  %26 = getelementptr inbounds nuw i8, ptr %2, i64 8
  %27 = uitofp i32 %8 to double
  %28 = fdiv reassoc nsz arcp contract afn double 1.000000e+00, %27
  br label %29

29:                                               ; preds = %.lr.ph, %_update_progress.exit
  %.02234 = phi ptr [ %.02230, %.lr.ph ], [ %.022, %_update_progress.exit ]
  %.033 = phi i64 [ 0, %.lr.ph ], [ %62, %_update_progress.exit ]
  %.02832 = phi double [ 0.000000e+00, %.lr.ph ], [ %.1, %_update_progress.exit ]
  %30 = call i32 @dt_control_job_get_state(ptr noundef %0) #17
  %.not29 = icmp eq i32 %30, 4
  br i1 %.not29, label %.critedge, label %33

.critedge:                                        ; preds = %29, %_update_progress.exit, %25
  %31 = load ptr, ptr %4, align 8, !tbaa !82
  %32 = call i32 @sqlite3_finalize(ptr noundef %31) #17
  call void @llvm.lifetime.end.p0(i64 8, ptr nonnull %4) #17
  call void @llvm.lifetime.end.p0(i64 512, ptr nonnull %3) #17
  ret i32 0

33:                                               ; preds = %29
  %34 = load ptr, ptr %.02234, align 8, !tbaa !61
  %35 = ptrtoint ptr %34 to i64
  %36 = trunc i64 %35 to i32
  %37 = load ptr, ptr getelementptr inbounds nuw (i8, ptr @darktable, i64 120), align 8, !tbaa !91
  %38 = call ptr @dt_image_cache_get(ptr noundef %37, i32 noundef %36, i8 noundef signext 114) #17
  call void @llvm.lifetime.start.p0(i64 4096, ptr nonnull %5) #17
  call void @llvm.memset.p0.i64(ptr noundef nonnull align 16 dereferenceable(4096) %5, i8 0, i64 4096, i1 false)
  %39 = getelementptr inbounds nuw i8, ptr %38, i64 1432
  %40 = load i32, ptr %39, align 8, !tbaa !195
  call void @dt_image_full_path(i32 noundef %40, ptr noundef nonnull %5, i64 noundef 4096, ptr noundef null) #17
  %41 = load i32, ptr %39, align 8, !tbaa !195
  call void @dt_image_path_append_version(i32 noundef %41, ptr noundef nonnull %5, i64 noundef 4096) #17
  %42 = call i64 @g_strlcat(ptr noundef nonnull %5, ptr noundef nonnull @.str.109, i64 noundef 4096) #17
  %43 = call i32 @dt_exif_xmp_write(i32 noundef %36, ptr noundef nonnull %5, i32 noundef 0) #17
  %.not26 = icmp eq i32 %43, 0
  br i1 %.not26, label %44, label %60

44:                                               ; preds = %33
  %45 = load ptr, ptr %4, align 8, !tbaa !82
  %46 = call i32 @sqlite3_bind_int(ptr noundef %45, i32 noundef 1, i32 noundef %36) #17
  %.not27 = icmp eq i32 %46, 0
  br i1 %.not27, label %53, label %47

47:                                               ; preds = %44
  %48 = load ptr, ptr @stderr, align 8, !tbaa !80
  %49 = load ptr, ptr getelementptr inbounds nuw (i8, ptr @darktable, i64 136), align 8, !tbaa !79
  %50 = call ptr @dt_database_get(ptr noundef %49) #17
  %51 = call ptr @sqlite3_errmsg(ptr noundef %50) #17
  %52 = call i32 (ptr, ptr, ...) @fprintf(ptr noundef %48, ptr noundef nonnull @.str.79, ptr noundef nonnull @.str.48, i32 noundef 359, ptr noundef nonnull @__FUNCTION__.dt_control_write_sidecar_files_job_run, ptr noundef %51) #20
  br label %53

53:                                               ; preds = %47, %44
  %54 = load ptr, ptr %4, align 8, !tbaa !82
  %55 = call i32 @sqlite3_step(ptr noundef %54) #17
  %56 = load ptr, ptr %4, align 8, !tbaa !82
  %57 = call i32 @sqlite3_reset(ptr noundef %56) #17
  %58 = load ptr, ptr %4, align 8, !tbaa !82
  %59 = call i32 @sqlite3_clear_bindings(ptr noundef %58) #17
  br label %60

60:                                               ; preds = %53, %33
  %61 = load ptr, ptr getelementptr inbounds nuw (i8, ptr @darktable, i64 120), align 8, !tbaa !91
  call void @dt_image_cache_read_release(ptr noundef %61, ptr noundef nonnull %38) #17
  %62 = add i64 %.033, 1
  call void @llvm.lifetime.start.p0(i64 16, ptr nonnull %2) #17
  %63 = call i32 @gettimeofday(ptr noundef nonnull %2, ptr noundef null) #17
  %64 = load i64, ptr %2, align 8, !tbaa !88
  %65 = add nsw i64 %64, -1290608000
  %66 = sitofp i64 %65 to double
  %67 = load i64, ptr %26, align 8, !tbaa !90
  %68 = sitofp i64 %67 to double
  %69 = fmul reassoc nsz arcp contract afn double %68, 0x3EB0C6F7A0B5ED8D
  %70 = fadd reassoc nsz arcp contract afn double %69, %66
  call void @llvm.lifetime.end.p0(i64 16, ptr nonnull %2) #17
  %71 = fadd reassoc nsz arcp contract afn double %.02832, 5.000000e-01
  %72 = fcmp reassoc nsz arcp contract afn ogt double %70, %71
  br i1 %72, label %73, label %_update_progress.exit

73:                                               ; preds = %60
  %74 = uitofp i64 %62 to double
  %75 = fmul reassoc nsz arcp contract afn double %74, %28
  %76 = fcmp reassoc nsz arcp contract afn ogt double %75, 1.000000e+00
  %77 = select reassoc nsz arcp contract afn i1 %76, double 1.000000e+00, double %75
  call void @dt_control_job_set_progress(ptr noundef %0, double noundef %77) #17
  br label %_update_progress.exit

_update_progress.exit:                            ; preds = %60, %73
  %.1 = phi nsz double [ %70, %73 ], [ %.02832, %60 ]
  call void @llvm.lifetime.end.p0(i64 4096, ptr nonnull %5) #17
  %78 = getelementptr inbounds nuw i8, ptr %.02234, i64 8
  %.022 = load ptr, ptr %78, align 8, !tbaa !176
  %.not24 = icmp eq ptr %.022, null
  br i1 %.not24, label %.critedge, label %29
}